target datalayout = "e-m:e-p270:32:32-p271:32:32-p272:64:64-i64:64-i128:128-f80:128-n8:16:32:64-S128"
target triple = "x86_64-pc-linux-gnu"

%"class.Ipopt::StdInterfaceTNLP" = type { %"class.Ipopt::TNLP.base", %"class.Ipopt::SmartPtr", i32, i32, ptr, ptr, ptr, ptr, i32, i32, i32, ptr, ptr, ptr, ptr, ptr, ptr, ptr, ptr, ptr, ptr, ptr, double, ptr, ptr, ptr, ptr, ptr, ptr, ptr, ptr, ptr, ptr, ptr }
%"class.Ipopt::TNLP.base" = type { %"class.Ipopt::ReferencedObject.base" }
%"class.Ipopt::ReferencedObject.base" = type <{ ptr, i32 }>
%"class.Ipopt::SmartPtr" = type { ptr }

; Function Attrs: mustprogress uwtable
define noundef zeroext i1 @_ZN5Ipopt16StdInterfaceTNLP18get_starting_pointEibPdbS1_S1_ibS1_(ptr noundef nonnull align 8 dereferenceable(264) %0, i32 noundef %1, i1 noundef zeroext %2, ptr noundef %3, i1 noundef zeroext %4, ptr noundef %5, ptr noundef %6, i32 noundef %7, i1 noundef zeroext %8, ptr noundef %9) unnamed_addr #0 align 2 {
  %11 = alloca ptr, align 8
  %12 = alloca i32, align 4
  %13 = alloca i8, align 1
  %14 = alloca ptr, align 8
  %15 = alloca i8, align 1
  %16 = alloca ptr, align 8
  %17 = alloca ptr, align 8
  %18 = alloca i32, align 4
  %19 = alloca i8, align 1
  %20 = alloca ptr, align 8
  %21 = alloca i8, align 1
  store ptr %0, ptr %11, align 8
  store i32 %1, ptr %12, align 4
  %22 = zext i1 %2 to i8
  store i8 %22, ptr %13, align 1
  store ptr %3, ptr %14, align 8
  %23 = zext i1 %4 to i8
  store i8 %23, ptr %15, align 1
  store ptr %5, ptr %16, align 8
  store ptr %6, ptr %17, align 8
  store i32 %7, ptr %18, align 4
  %24 = zext i1 %8 to i8
  store i8 %24, ptr %19, align 1
  store ptr %9, ptr %20, align 8
  %25 = load ptr, ptr %11, align 8
  store i8 1, ptr %21, align 1
  %26 = load i8, ptr %13, align 1
  %27 = trunc i8 %26 to i1
  br i1 %27, label %28, label %33

28:                                               ; preds = %10
  %29 = load i32, ptr %12, align 4
  %30 = getelementptr inbounds %"class.Ipopt::StdInterfaceTNLP", ptr %25, i32 0, i32 11
  %31 = load ptr, ptr %30, align 8
  %32 = load ptr, ptr %14, align 8
  call void @_ZN5Ipopt10IpBlasCopyEiPKdiPdi(i32 noundef %29, ptr noundef %31, i32 noundef 1, ptr noundef %32, i32 noundef 1)
  br label %33

33:                                               ; preds = %28, %10
  %34 = load i8, ptr %15, align 1
  %35 = trunc i8 %34 to i1
  br i1 %35, label %36, label %57

36:                                               ; preds = %33
  %37 = getelementptr inbounds %"class.Ipopt::StdInterfaceTNLP", ptr %25, i32 0, i32 13
  %38 = load ptr, ptr %37, align 8
  %39 = icmp eq ptr %38, null
  br i1 %39, label %40, label %41

40:                                               ; preds = %36
  store i8 0, ptr %21, align 1
  br label %46

41:                                               ; preds = %36
  %42 = load i32, ptr %12, align 4
  %43 = getelementptr inbounds %"class.Ipopt::StdInterfaceTNLP", ptr %25, i32 0, i32 13
  %44 = load ptr, ptr %43, align 8
  %45 = load ptr, ptr %16, align 8
  call void @_ZN5Ipopt10IpBlasCopyEiPKdiPdi(i32 noundef %42, ptr noundef %44, i32 noundef 1, ptr noundef %45, i32 noundef 1)
  br label %46

46:                                               ; preds = %41, %40
  %47 = getelementptr inbounds %"class.Ipopt::StdInterfaceTNLP", ptr %25, i32 0, i32 14
  %48 = load ptr, ptr %47, align 8
  %49 = icmp eq ptr %48, null
  br i1 %49, label %50, label %51

50:                                               ; preds = %46
  store i8 0, ptr %21, align 1
  br label %56

51:                                               ; preds = %46
  %52 = load i32, ptr %12, align 4
  %53 = getelementptr inbounds %"class.Ipopt::StdInterfaceTNLP", ptr %25, i32 0, i32 14
  %54 = load ptr, ptr %53, align 8
  %55 = load ptr, ptr %17, align 8
  call void @_ZN5Ipopt10IpBlasCopyEiPKdiPdi(i32 noundef %52, ptr noundef %54, i32 noundef 1, ptr noundef %55, i32 noundef 1)
  br label %56

56:                                               ; preds = %51, %50
  br label %57

57:                                               ; preds = %56, %33
  %58 = load i8, ptr %19, align 1
  %59 = trunc i8 %58 to i1
  br i1 %59, label %60, label %71

60:                                               ; preds = %57
  %61 = getelementptr inbounds %"class.Ipopt::StdInterfaceTNLP", ptr %25, i32 0, i32 12
  %62 = load ptr, ptr %61, align 8
  %63 = icmp eq ptr %62, null
  br i1 %63, label %64, label %65

64:                                               ; preds = %60
  store i8 0, ptr %21, align 1
  br label %70

65:                                               ; preds = %60
  %66 = load i32, ptr %18, align 4
  %67 = getelementptr inbounds %"class.Ipopt::StdInterfaceTNLP", ptr %25, i32 0, i32 12
  %68 = load ptr, ptr %67, align 8
  %69 = load ptr, ptr %20, align 8
  call void @_ZN5Ipopt10IpBlasCopyEiPKdiPdi(i32 noundef %66, ptr noundef %68, i32 noundef 1, ptr noundef %69, i32 noundef 1)
  br label %70

70:                                               ; preds = %65, %64
  br label %71

71:                                               ; preds = %70, %57
  %72 = load i8, ptr %21, align 1
  %73 = trunc i8 %72 to i1
  ret i1 %73
}