; Function Attrs: mustprogress uwtable
define noundef zeroext i1 @_ZN5Ipopt16StdInterfaceTNLP18get_starting_pointEibPdbS1_S1_ibS1_(ptr nocapture noundef nonnull readonly align 8 dereferenceable(264) %0, i32 noundef %1, i1 noundef zeroext %2, ptr noundef %3, i1 noundef zeroext %4, ptr noundef %5, ptr noundef %6, i32 noundef %7, i1 noundef zeroext %8, ptr noundef %9) unnamed_addr #0 align 2 {
  br i1 %2, label %11, label %14

11:                                               ; preds = %10
  %12 = getelementptr inbounds i8, ptr %0, i64 80
  %13 = load ptr, ptr %12, align 8
  tail call void @_ZN5Ipopt10IpBlasCopyEiPKdiPdi(i32 noundef %1, ptr noundef %13, i32 noundef 1, ptr noundef %3, i32 noundef 1)
  br label %14

14:                                               ; preds = %11, %10
  br i1 %4, label %15, label %25

15:                                               ; preds = %14
  %16 = getelementptr inbounds i8, ptr %0, i64 96
  %17 = load ptr, ptr %16, align 8
  %18 = icmp eq ptr %17, null
  br i1 %18, label %20, label %19

19:                                               ; preds = %15
  tail call void @_ZN5Ipopt10IpBlasCopyEiPKdiPdi(i32 noundef %1, ptr noundef nonnull %17, i32 noundef 1, ptr noundef %5, i32 noundef 1)
  br label %20

20:                                               ; preds = %15, %19
  %.0 = phi i8 [ 1, %19 ], [ 0, %15 ]
  %21 = getelementptr inbounds i8, ptr %0, i64 104
  %22 = load ptr, ptr %21, align 8
  %23 = icmp eq ptr %22, null
  br i1 %23, label %25, label %24

24:                                               ; preds = %20
  tail call void @_ZN5Ipopt10IpBlasCopyEiPKdiPdi(i32 noundef %1, ptr noundef nonnull %22, i32 noundef 1, ptr noundef %6, i32 noundef 1)
  br label %25

25:                                               ; preds = %20, %24, %14
  %.1 = phi i8 [ %.0, %24 ], [ 1, %14 ], [ 0, %20 ]
  br i1 %8, label %26, label %31

26:                                               ; preds = %25
  %27 = getelementptr inbounds i8, ptr %0, i64 88
  %28 = load ptr, ptr %27, align 8
  %29 = icmp eq ptr %28, null
  br i1 %29, label %31, label %30

30:                                               ; preds = %26
  tail call void @_ZN5Ipopt10IpBlasCopyEiPKdiPdi(i32 noundef %7, ptr noundef nonnull %28, i32 noundef 1, ptr noundef %9, i32 noundef 1)
  br label %31

31:                                               ; preds = %26, %30, %25
  %.2 = phi i8 [ %.1, %30 ], [ %.1, %25 ], [ 0, %26 ]
  %32 = icmp ne i8 %.2, 0
  ret i1 %32
}